target datalayout = "e-m:e-p270:32:32-p271:32:32-p272:64:64-i64:64-i128:128-f80:128-n8:16:32:64-S128"
target triple = "x86_64-pc-linux-gnu"

%"class.cvc5::internal::NodeTemplate" = type { ptr }
%"class.cvc5::internal::smt::InterpolationSolver" = type { %"class.cvc5::internal::EnvObj", %"class.std::unique_ptr", %"class.cvc5::internal::NodeTemplate" }
%"class.cvc5::internal::EnvObj" = type { ptr, ptr }
%"class.std::unique_ptr" = type { %"struct.std::__uniq_ptr_data" }
%"struct.std::__uniq_ptr_data" = type { %"class.std::__uniq_ptr_impl" }
%"class.std::__uniq_ptr_impl" = type { %"class.std::tuple" }
%"class.std::tuple" = type { %"struct.std::_Tuple_impl" }
%"struct.std::_Tuple_impl" = type { %"struct.std::_Head_base.1" }
%"struct.std::_Head_base.1" = type { ptr }
%"class.cvc5::internal::expr::NodeValue" = type { i64, i64, ptr, [0 x ptr] }

@_ZTVN4cvc58internal3smt19InterpolationSolverE = hidden unnamed_addr constant { [4 x ptr] } { [4 x ptr] [ptr null, ptr @_ZTIN4cvc58internal3smt19InterpolationSolverE, ptr @_ZN4cvc58internal3smt19InterpolationSolverD1Ev, ptr @_ZN4cvc58internal3smt19InterpolationSolverD0Ev] }, align 8
@_ZZN4cvc58internal4expr9NodeValue4nullEvE6s_null = linkonce_odr global ptr null, comdat, align 8
@_ZGVZN4cvc58internal4expr9NodeValue4nullEvE6s_null = linkonce_odr global i64 0, comdat, align 8

; Function Attrs: mustprogress nounwind uwtable
define linkonce_odr hidden noundef nonnull align 1 dereferenceable(1) ptr @_ZNSt10_Head_baseILm1ESt14default_deleteIN4cvc58internal6theory11quantifiers13SygusInterpolEELb1EE7_M_headERS7_(ptr noundef nonnull align 1 dereferenceable(1) %0) #5 comdat align 2 {
  %2 = alloca ptr, align 8
  store ptr %0, ptr %2, align 8, !tbaa !358
  %3 = load ptr, ptr %2, align 8, !tbaa !358
  ret ptr %3
}

; Function Attrs: mustprogress nounwind uwtable
define linkonce_odr hidden void @_ZNSt10_Head_baseILm1ESt14default_deleteIN4cvc58internal6theory11quantifiers13SygusInterpolEELb1EEC2Ev(ptr noundef nonnull align 1 dereferenceable(1) %0) unnamed_addr #5 comdat align 2 {
  %2 = alloca ptr, align 8
  store ptr %0, ptr %2, align 8, !tbaa !358
  ret void
}

; Function Attrs: mustprogress nounwind uwtable
define linkonce_odr hidden noundef nonnull align 1 dereferenceable(1) ptr @_ZNSt11_Tuple_implILm1EJSt14default_deleteIN4cvc58internal6theory11quantifiers13SygusInterpolEEEE7_M_headERS7_(ptr noundef nonnull align 1 dereferenceable(1) %0) #5 comdat align 2 {
  %2 = alloca ptr, align 8
  store ptr %0, ptr %2, align 8, !tbaa !352
  %3 = load ptr, ptr %2, align 8, !tbaa !352
  %4 = call noundef nonnull align 1 dereferenceable(1) ptr @_ZNSt10_Head_baseILm1ESt14default_deleteIN4cvc58internal6theory11quantifiers13SygusInterpolEELb1EE7_M_headERS7_(ptr noundef nonnull align 1 dereferenceable(1) %3) #3
  ret ptr %4
}

; Function Attrs: mustprogress nounwind uwtable
define linkonce_odr hidden noundef nonnull align 8 dereferenceable(8) ptr @_ZNSt10_Head_baseILm0EPN4cvc58internal6theory11quantifiers13SygusInterpolELb0EE7_M_headERS6_(ptr noundef nonnull align 8 dereferenceable(8) %0) #5 comdat align 2 {
  %2 = alloca ptr, align 8
  store ptr %0, ptr %2, align 8, !tbaa !354
  %3 = load ptr, ptr %2, align 8, !tbaa !354
  %4 = getelementptr inbounds nuw %"struct.std::_Head_base.1", ptr %3, i32 0, i32 0
  ret ptr %4
}

; Function Attrs: mustprogress nounwind uwtable
define linkonce_odr hidden void @_ZNSt10_Head_baseILm0EPN4cvc58internal6theory11quantifiers13SygusInterpolELb0EEC2Ev(ptr noundef nonnull align 8 dereferenceable(8) %0) unnamed_addr #5 comdat align 2 {
  %2 = alloca ptr, align 8
  store ptr %0, ptr %2, align 8, !tbaa !354
  %3 = load ptr, ptr %2, align 8
  %4 = getelementptr inbounds nuw %"struct.std::_Head_base.1", ptr %3, i32 0, i32 0
  store ptr null, ptr %4, align 8, !tbaa !356
  ret void
}

; Function Attrs: mustprogress uwtable
define linkonce_odr hidden void @_ZNSt11_Tuple_implILm1EJSt14default_deleteIN4cvc58internal6theory11quantifiers13SygusInterpolEEEEC2Ev(ptr noundef nonnull align 1 dereferenceable(1) %0) unnamed_addr #4 comdat align 2 {
  %2 = alloca ptr, align 8
  store ptr %0, ptr %2, align 8, !tbaa !352
  %3 = load ptr, ptr %2, align 8
  call void @_ZNSt10_Head_baseILm1ESt14default_deleteIN4cvc58internal6theory11quantifiers13SygusInterpolEELb1EEC2Ev(ptr noundef nonnull align 1 dereferenceable(1) %3)
  ret void
}

; Function Attrs: mustprogress nounwind uwtable
define linkonce_odr hidden noundef nonnull align 1 dereferenceable(1) ptr @_ZSt12__get_helperILm1ESt14default_deleteIN4cvc58internal6theory11quantifiers13SygusInterpolEEJEERT0_RSt11_Tuple_implIXT_EJS7_DpT1_EE(ptr noundef nonnull align 1 dereferenceable(1) %0) #5 comdat {
  %2 = alloca ptr, align 8
  store ptr %0, ptr %2, align 8, !tbaa !352
  %3 = load ptr, ptr %2, align 8, !tbaa !352
  %4 = call noundef nonnull align 1 dereferenceable(1) ptr @_ZNSt11_Tuple_implILm1EJSt14default_deleteIN4cvc58internal6theory11quantifiers13SygusInterpolEEEE7_M_headERS7_(ptr noundef nonnull align 1 dereferenceable(1) %3) #3
  ret ptr %4
}

; Function Attrs: mustprogress nounwind uwtable
define linkonce_odr hidden noundef nonnull align 8 dereferenceable(8) ptr @_ZNSt11_Tuple_implILm0EJPN4cvc58internal6theory11quantifiers13SygusInterpolESt14default_deleteIS4_EEE7_M_headERS8_(ptr noundef nonnull align 8 dereferenceable(8) %0) #5 comdat align 2 {
  %2 = alloca ptr, align 8
  store ptr %0, ptr %2, align 8, !tbaa !350
  %3 = load ptr, ptr %2, align 8, !tbaa !350
  %4 = call noundef nonnull align 8 dereferenceable(8) ptr @_ZNSt10_Head_baseILm0EPN4cvc58internal6theory11quantifiers13SygusInterpolELb0EE7_M_headERS6_(ptr noundef nonnull align 8 dereferenceable(8) %3) #3
  ret ptr %4
}

; Function Attrs: noinline noreturn nounwind uwtable
define linkonce_odr hidden void @__clang_call_terminate(ptr noundef %0) #13 comdat {
  %2 = call ptr @__cxa_begin_catch(ptr %0) #3
  call void @_ZSt9terminatev() #18
  unreachable
}

; Function Attrs: mustprogress uwtable
define linkonce_odr hidden void @_ZNSt11_Tuple_implILm0EJPN4cvc58internal6theory11quantifiers13SygusInterpolESt14default_deleteIS4_EEEC2Ev(ptr noundef nonnull align 8 dereferenceable(8) %0) unnamed_addr #4 comdat align 2 {
  %2 = alloca ptr, align 8
  store ptr %0, ptr %2, align 8, !tbaa !350
  %3 = load ptr, ptr %2, align 8
  call void @_ZNSt11_Tuple_implILm1EJSt14default_deleteIN4cvc58internal6theory11quantifiers13SygusInterpolEEEEC2Ev(ptr noundef nonnull align 1 dereferenceable(1) %3)
  call void @_ZNSt10_Head_baseILm0EPN4cvc58internal6theory11quantifiers13SygusInterpolELb0EEC2Ev(ptr noundef nonnull align 8 dereferenceable(8) %3)
  ret void
}

; Function Attrs: mustprogress nounwind uwtable
define linkonce_odr hidden noundef nonnull align 1 dereferenceable(1) ptr @_ZSt3getILm1EJPN4cvc58internal6theory11quantifiers13SygusInterpolESt14default_deleteIS4_EEERNSt13tuple_elementIXT_ESt5tupleIJDpT0_EEE4typeERSC_(ptr noundef nonnull align 8 dereferenceable(8) %0) #5 comdat {
  %2 = alloca ptr, align 8
  store ptr %0, ptr %2, align 8, !tbaa !348
  %3 = load ptr, ptr %2, align 8, !tbaa !348
  %4 = call noundef nonnull align 1 dereferenceable(1) ptr @_ZSt12__get_helperILm1ESt14default_deleteIN4cvc58internal6theory11quantifiers13SygusInterpolEEJEERT0_RSt11_Tuple_implIXT_EJS7_DpT1_EE(ptr noundef nonnull align 1 dereferenceable(1) %3) #3
  ret ptr %4
}

; Function Attrs: mustprogress nounwind uwtable
define linkonce_odr hidden noundef nonnull align 8 dereferenceable(8) ptr @_ZSt12__get_helperILm0EPN4cvc58internal6theory11quantifiers13SygusInterpolEJSt14default_deleteIS4_EEERT0_RSt11_Tuple_implIXT_EJS8_DpT1_EE(ptr noundef nonnull align 8 dereferenceable(8) %0) #5 comdat {
  %2 = alloca ptr, align 8
  store ptr %0, ptr %2, align 8, !tbaa !350
  %3 = load ptr, ptr %2, align 8, !tbaa !350
  %4 = call noundef nonnull align 8 dereferenceable(8) ptr @_ZNSt11_Tuple_implILm0EJPN4cvc58internal6theory11quantifiers13SygusInterpolESt14default_deleteIS4_EEE7_M_headERS8_(ptr noundef nonnull align 8 dereferenceable(8) %3) #3
  ret ptr %4
}

; Function Attrs: mustprogress nounwind uwtable
define linkonce_odr hidden void @_ZNSt5tupleIJPN4cvc58internal6theory11quantifiers13SygusInterpolESt14default_deleteIS4_EEEC2ILb1ETnNSt9enable_ifIXclsr17_TupleConstraintsIXT_ES5_S7_EE37__is_implicitly_default_constructibleEEbE4typeELb1EEEv(ptr noundef nonnull align 8 dereferenceable(8) %0) unnamed_addr #5 comdat align 2 personality ptr @__gxx_personality_v0 {
  %2 = alloca ptr, align 8
  store ptr %0, ptr %2, align 8, !tbaa !348
  %3 = load ptr, ptr %2, align 8
  invoke void @_ZNSt11_Tuple_implILm0EJPN4cvc58internal6theory11quantifiers13SygusInterpolESt14default_deleteIS4_EEEC2Ev(ptr noundef nonnull align 8 dereferenceable(8) %3)
          to label %4 unwind label %5

4:                                                ; preds = %1
  ret void

5:                                                ; preds = %1
  %6 = landingpad { ptr, i32 }
          catch ptr null
  %7 = extractvalue { ptr, i32 } %6, 0
  call void @__clang_call_terminate(ptr %7) #18
  unreachable
}

; Function Attrs: mustprogress nounwind uwtable
define linkonce_odr hidden noundef nonnull align 1 dereferenceable(1) ptr @_ZNSt15__uniq_ptr_implIN4cvc58internal6theory11quantifiers13SygusInterpolESt14default_deleteIS4_EE10_M_deleterEv(ptr noundef nonnull align 8 dereferenceable(8) %0) #5 comdat align 2 {
  %2 = alloca ptr, align 8
  store ptr %0, ptr %2, align 8, !tbaa !346
  %3 = load ptr, ptr %2, align 8
  %4 = getelementptr inbounds nuw %"class.std::__uniq_ptr_impl", ptr %3, i32 0, i32 0
  %5 = call noundef nonnull align 1 dereferenceable(1) ptr @_ZSt3getILm1EJPN4cvc58internal6theory11quantifiers13SygusInterpolESt14default_deleteIS4_EEERNSt13tuple_elementIXT_ESt5tupleIJDpT0_EEE4typeERSC_(ptr noundef nonnull align 8 dereferenceable(8) %4) #3
  ret ptr %5
}

; Function Attrs: mustprogress nounwind uwtable
define linkonce_odr hidden noundef nonnull align 8 dereferenceable(8) ptr @_ZSt3getILm0EJPN4cvc58internal6theory11quantifiers13SygusInterpolESt14default_deleteIS4_EEERNSt13tuple_elementIXT_ESt5tupleIJDpT0_EEE4typeERSC_(ptr noundef nonnull align 8 dereferenceable(8) %0) #5 comdat {
  %2 = alloca ptr, align 8
  store ptr %0, ptr %2, align 8, !tbaa !348
  %3 = load ptr, ptr %2, align 8, !tbaa !348
  %4 = call noundef nonnull align 8 dereferenceable(8) ptr @_ZSt12__get_helperILm0EPN4cvc58internal6theory11quantifiers13SygusInterpolEJSt14default_deleteIS4_EEERT0_RSt11_Tuple_implIXT_EJS8_DpT1_EE(ptr noundef nonnull align 8 dereferenceable(8) %3) #3
  ret ptr %4
}

; Function Attrs: inlinehint mustprogress nounwind uwtable
define linkonce_odr hidden void @_ZN4cvc58internal4expr9NodeValueC2Ei(ptr noundef nonnull align 8 dereferenceable(24) %0, i32 noundef %1) unnamed_addr #8 comdat align 2 {
  %3 = alloca ptr, align 8
  %4 = alloca i32, align 4
  store ptr %0, ptr %3, align 8, !tbaa !343
  store i32 %1, ptr %4, align 4, !tbaa !272
  %5 = load ptr, ptr %3, align 8
  %6 = load i64, ptr %5, align 8
  %7 = and i64 %6, -1099511627776
  %8 = or i64 %7, 0
  store i64 %8, ptr %5, align 8
  %9 = load i64, ptr %5, align 8
  %10 = and i64 %9, -1152920405095219201
  %11 = or i64 %10, 1152920405095219200
  store i64 %11, ptr %5, align 8
  %12 = getelementptr inbounds nuw %"class.cvc5::internal::expr::NodeValue", ptr %5, i32 0, i32 1
  %13 = load i64, ptr %12, align 8
  %14 = and i64 %13, -1024
  %15 = or i64 %14, 0
  store i64 %15, ptr %12, align 8
  %16 = getelementptr inbounds nuw %"class.cvc5::internal::expr::NodeValue", ptr %5, i32 0, i32 1
  %17 = load i64, ptr %16, align 8
  %18 = and i64 %17, -288230371856744449
  %19 = or i64 %18, 0
  store i64 %19, ptr %16, align 8
  %20 = getelementptr inbounds nuw %"class.cvc5::internal::expr::NodeValue", ptr %5, i32 0, i32 2
  store ptr null, ptr %20, align 8, !tbaa !430
  ret void
}

; Function Attrs: mustprogress nounwind uwtable
define linkonce_odr hidden void @_ZNSt15__uniq_ptr_implIN4cvc58internal6theory11quantifiers13SygusInterpolESt14default_deleteIS4_EEC2Ev(ptr noundef nonnull align 8 dereferenceable(8) %0) unnamed_addr #5 comdat align 2 {
  %2 = alloca ptr, align 8
  store ptr %0, ptr %2, align 8, !tbaa !346
  %3 = load ptr, ptr %2, align 8
  %4 = getelementptr inbounds nuw %"class.std::__uniq_ptr_impl", ptr %3, i32 0, i32 0
  call void @_ZNSt5tupleIJPN4cvc58internal6theory11quantifiers13SygusInterpolESt14default_deleteIS4_EEEC2ILb1ETnNSt9enable_ifIXclsr17_TupleConstraintsIXT_ES5_S7_EE37__is_implicitly_default_constructibleEEbE4typeELb1EEEv(ptr noundef nonnull align 8 dereferenceable(8) %4) #3
  ret void
}

; Function Attrs: mustprogress nounwind uwtable
define linkonce_odr hidden void @_ZNKSt14default_deleteIN4cvc58internal6theory11quantifiers13SygusInterpolEEclEPS4_(ptr noundef nonnull align 1 dereferenceable(1) %0, ptr noundef %1) #5 comdat align 2 {
  %3 = alloca ptr, align 8
  %4 = alloca ptr, align 8
  store ptr %0, ptr %3, align 8, !tbaa !420
  store ptr %1, ptr %4, align 8, !tbaa !21
  %5 = load ptr, ptr %4, align 8, !tbaa !21
  %6 = icmp eq ptr %5, null
  br i1 %6, label %11, label %7

7:                                                ; preds = %2
  %8 = load ptr, ptr %5, align 8, !tbaa !10
  %9 = getelementptr inbounds ptr, ptr %8, i64 1
  %10 = load ptr, ptr %9, align 8
  call void %10(ptr noundef nonnull align 8 dereferenceable(248) %5) #3
  br label %11

11:                                               ; preds = %7, %2
  ret void
}

; Function Attrs: mustprogress nounwind uwtable
define linkonce_odr hidden noundef nonnull align 1 dereferenceable(1) ptr @_ZNSt10unique_ptrIN4cvc58internal6theory11quantifiers13SygusInterpolESt14default_deleteIS4_EE11get_deleterEv(ptr noundef nonnull align 8 dereferenceable(8) %0) #5 comdat align 2 {
  %2 = alloca ptr, align 8
  store ptr %0, ptr %2, align 8, !tbaa !12
  %3 = load ptr, ptr %2, align 8
  %4 = getelementptr inbounds nuw %"class.std::unique_ptr", ptr %3, i32 0, i32 0
  %5 = call noundef nonnull align 1 dereferenceable(1) ptr @_ZNSt15__uniq_ptr_implIN4cvc58internal6theory11quantifiers13SygusInterpolESt14default_deleteIS4_EE10_M_deleterEv(ptr noundef nonnull align 8 dereferenceable(8) %4) #3
  ret ptr %5
}

; Function Attrs: mustprogress nounwind uwtable
define linkonce_odr hidden noundef nonnull align 8 dereferenceable(8) ptr @_ZNSt15__uniq_ptr_implIN4cvc58internal6theory11quantifiers13SygusInterpolESt14default_deleteIS4_EE6_M_ptrEv(ptr noundef nonnull align 8 dereferenceable(8) %0) #5 comdat align 2 {
  %2 = alloca ptr, align 8
  store ptr %0, ptr %2, align 8, !tbaa !346
  %3 = load ptr, ptr %2, align 8
  %4 = getelementptr inbounds nuw %"class.std::__uniq_ptr_impl", ptr %3, i32 0, i32 0
  %5 = call noundef nonnull align 8 dereferenceable(8) ptr @_ZSt3getILm0EJPN4cvc58internal6theory11quantifiers13SygusInterpolESt14default_deleteIS4_EEERNSt13tuple_elementIXT_ESt5tupleIJDpT0_EEE4typeERSC_(ptr noundef nonnull align 8 dereferenceable(8) %4) #3
  ret ptr %5
}

; Function Attrs: inlinehint mustprogress uwtable
define linkonce_odr hidden noundef nonnull align 8 dereferenceable(24) ptr @_ZN4cvc58internal4expr9NodeValue4nullEv() #9 comdat align 2 personality ptr @__gxx_personality_v0 {
  %1 = alloca ptr, align 8
  %2 = alloca i32, align 4
  %3 = load atomic i8, ptr @_ZGVZN4cvc58internal4expr9NodeValue4nullEvE6s_null acquire, align 8
  %4 = icmp eq i8 %3, 0
  br i1 %4, label %5, label %12, !prof !342

5:                                                ; preds = %0
  %6 = call i32 @__cxa_guard_acquire(ptr @_ZGVZN4cvc58internal4expr9NodeValue4nullEvE6s_null) #3
  %7 = icmp ne i32 %6, 0
  br i1 %7, label %8, label %12

8:                                                ; preds = %5
  %9 = invoke noalias noundef nonnull ptr @_Znwm(i64 noundef 24) #21
          to label %10 unwind label %14

10:                                               ; preds = %8
  invoke void @_ZN4cvc58internal4expr9NodeValueC2Ei(ptr noundef nonnull align 8 dereferenceable(24) %9, i32 noundef 0)
          to label %11 unwind label %18

11:                                               ; preds = %10
  store ptr %9, ptr @_ZZN4cvc58internal4expr9NodeValue4nullEvE6s_null, align 8, !tbaa !343
  call void @__cxa_guard_release(ptr @_ZGVZN4cvc58internal4expr9NodeValue4nullEvE6s_null) #3
  br label %12

12:                                               ; preds = %11, %5, %0
  %13 = load ptr, ptr @_ZZN4cvc58internal4expr9NodeValue4nullEvE6s_null, align 8, !tbaa !343
  ret ptr %13

14:                                               ; preds = %8
  %15 = landingpad { ptr, i32 }
          cleanup
  %16 = extractvalue { ptr, i32 } %15, 0
  store ptr %16, ptr %1, align 8
  %17 = extractvalue { ptr, i32 } %15, 1
  store i32 %17, ptr %2, align 4
  br label %22

18:                                               ; preds = %10
  %19 = landingpad { ptr, i32 }
          cleanup
  %20 = extractvalue { ptr, i32 } %19, 0
  store ptr %20, ptr %1, align 8
  %21 = extractvalue { ptr, i32 } %19, 1
  store i32 %21, ptr %2, align 4
  call void @_ZdlPvm(ptr noundef %9, i64 noundef 24) #19
  br label %22

22:                                               ; preds = %18, %14
  call void @__cxa_guard_abort(ptr @_ZGVZN4cvc58internal4expr9NodeValue4nullEvE6s_null) #3
  br label %23

23:                                               ; preds = %22
  %24 = load ptr, ptr %1, align 8
  %25 = load i32, ptr %2, align 4
  %26 = insertvalue { ptr, i32 } poison, ptr %24, 0
  %27 = insertvalue { ptr, i32 } %26, i32 %25, 1
  resume { ptr, i32 } %27
}

; Function Attrs: inlinehint mustprogress nounwind uwtable
define linkonce_odr hidden void @_ZNSt15__uniq_ptr_dataIN4cvc58internal6theory11quantifiers13SygusInterpolESt14default_deleteIS4_ELb1ELb1EEC2Ev(ptr noundef nonnull align 8 dereferenceable(8) %0) unnamed_addr #8 comdat align 2 {
  %2 = alloca ptr, align 8
  store ptr %0, ptr %2, align 8, !tbaa !344
  %3 = load ptr, ptr %2, align 8
  call void @_ZNSt15__uniq_ptr_implIN4cvc58internal6theory11quantifiers13SygusInterpolESt14default_deleteIS4_EEC2Ev(ptr noundef nonnull align 8 dereferenceable(8) %3) #3
  ret void
}

; Function Attrs: mustprogress nounwind uwtable
define linkonce_odr hidden void @_ZN4cvc58internal6EnvObjD2Ev(ptr noundef nonnull align 8 dereferenceable(16) %0) unnamed_addr #5 comdat align 2 {
  %2 = alloca ptr, align 8
  store ptr %0, ptr %2, align 8, !tbaa !23
  ret void
}

; Function Attrs: mustprogress nounwind uwtable
define linkonce_odr hidden void @_ZNSt10unique_ptrIN4cvc58internal6theory11quantifiers13SygusInterpolESt14default_deleteIS4_EED2Ev(ptr noundef nonnull align 8 dereferenceable(8) %0) unnamed_addr #5 comdat align 2 {
  %2 = alloca ptr, align 8
  %3 = alloca ptr, align 8
  store ptr %0, ptr %2, align 8, !tbaa !12
  %4 = load ptr, ptr %2, align 8
  call void @llvm.lifetime.start.p0(i64 8, ptr %3) #3
  %5 = getelementptr inbounds nuw %"class.std::unique_ptr", ptr %4, i32 0, i32 0
  %6 = call noundef nonnull align 8 dereferenceable(8) ptr @_ZNSt15__uniq_ptr_implIN4cvc58internal6theory11quantifiers13SygusInterpolESt14default_deleteIS4_EE6_M_ptrEv(ptr noundef nonnull align 8 dereferenceable(8) %5) #3
  store ptr %6, ptr %3, align 8, !tbaa !19
  %7 = load ptr, ptr %3, align 8, !tbaa !19
  %8 = load ptr, ptr %7, align 8, !tbaa !21
  %9 = icmp ne ptr %8, null
  br i1 %9, label %10, label %14

10:                                               ; preds = %1
  %11 = call noundef nonnull align 1 dereferenceable(1) ptr @_ZNSt10unique_ptrIN4cvc58internal6theory11quantifiers13SygusInterpolESt14default_deleteIS4_EE11get_deleterEv(ptr noundef nonnull align 8 dereferenceable(8) %4) #3
  %12 = load ptr, ptr %3, align 8, !tbaa !19
  %13 = load ptr, ptr %12, align 8, !tbaa !21
  call void @_ZNKSt14default_deleteIN4cvc58internal6theory11quantifiers13SygusInterpolEEclEPS4_(ptr noundef nonnull align 1 dereferenceable(1) %11, ptr noundef %13)
  br label %14

14:                                               ; preds = %10, %1
  %15 = load ptr, ptr %3, align 8, !tbaa !19
  store ptr null, ptr %15, align 8, !tbaa !21
  call void @llvm.lifetime.end.p0(i64 8, ptr %3) #3
  ret void
}

; Function Attrs: mustprogress uwtable
define linkonce_odr hidden void @_ZN4cvc58internal12NodeTemplateILb1EEC2Ev(ptr noundef nonnull align 8 dereferenceable(8) %0) unnamed_addr #4 comdat align 2 {
  %2 = alloca ptr, align 8
  store ptr %0, ptr %2, align 8, !tbaa !14
  %3 = load ptr, ptr %2, align 8
  %4 = getelementptr inbounds nuw %"class.cvc5::internal::NodeTemplate", ptr %3, i32 0, i32 0
  %5 = call noundef nonnull align 8 dereferenceable(24) ptr @_ZN4cvc58internal4expr9NodeValue4nullEv()
  store ptr %5, ptr %4, align 8, !tbaa !16
  ret void
}

; Function Attrs: mustprogress nounwind uwtable
define linkonce_odr hidden void @_ZNSt10unique_ptrIN4cvc58internal6theory11quantifiers13SygusInterpolESt14default_deleteIS4_EEC2IS6_vEEv(ptr noundef nonnull align 8 dereferenceable(8) %0) unnamed_addr #5 comdat align 2 {
  %2 = alloca ptr, align 8
  store ptr %0, ptr %2, align 8, !tbaa !12
  %3 = load ptr, ptr %2, align 8
  %4 = getelementptr inbounds nuw %"class.std::unique_ptr", ptr %3, i32 0, i32 0
  call void @llvm.memset.p0.i64(ptr align 8 %4, i8 0, i64 8, i1 false)
  call void @_ZNSt15__uniq_ptr_dataIN4cvc58internal6theory11quantifiers13SygusInterpolESt14default_deleteIS4_ELb1ELb1EEC2Ev(ptr noundef nonnull align 8 dereferenceable(8) %4) #3
  ret void
}

; Function Attrs: mustprogress uwtable
define hidden void @_ZN4cvc58internal3smt19InterpolationSolverC2ERNS0_3EnvE(ptr noundef nonnull align 8 dereferenceable(32) %0, ptr noundef nonnull align 8 dereferenceable(696) %1) unnamed_addr #4 align 2 personality ptr @__gxx_personality_v0 {
  %3 = alloca ptr, align 8
  %4 = alloca ptr, align 8
  %5 = alloca ptr, align 8
  %6 = alloca i32, align 4
  store ptr %0, ptr %3, align 8, !tbaa !3
  store ptr %1, ptr %4, align 8, !tbaa !8
  %7 = load ptr, ptr %3, align 8
  %8 = load ptr, ptr %4, align 8, !tbaa !8
  call void @_ZN4cvc58internal6EnvObjC2ERNS0_3EnvE(ptr noundef nonnull align 8 dereferenceable(16) %7, ptr noundef nonnull align 8 dereferenceable(696) %8)
  store ptr getelementptr inbounds inrange(-16, 16) ({ [4 x ptr] }, ptr @_ZTVN4cvc58internal3smt19InterpolationSolverE, i32 0, i32 0, i32 2), ptr %7, align 8, !tbaa !10
  %9 = getelementptr inbounds nuw %"class.cvc5::internal::smt::InterpolationSolver", ptr %7, i32 0, i32 1
  call void @_ZNSt10unique_ptrIN4cvc58internal6theory11quantifiers13SygusInterpolESt14default_deleteIS4_EEC2IS6_vEEv(ptr noundef nonnull align 8 dereferenceable(8) %9) #3
  %10 = getelementptr inbounds nuw %"class.cvc5::internal::smt::InterpolationSolver", ptr %7, i32 0, i32 2
  invoke void @_ZN4cvc58internal12NodeTemplateILb1EEC2Ev(ptr noundef nonnull align 8 dereferenceable(8) %10)
          to label %11 unwind label %12

11:                                               ; preds = %2
  ret void

12:                                               ; preds = %2
  %13 = landingpad { ptr, i32 }
          cleanup
  %14 = extractvalue { ptr, i32 } %13, 0
  store ptr %14, ptr %5, align 8
  %15 = extractvalue { ptr, i32 } %13, 1
  store i32 %15, ptr %6, align 4
  call void @_ZNSt10unique_ptrIN4cvc58internal6theory11quantifiers13SygusInterpolESt14default_deleteIS4_EED2Ev(ptr noundef nonnull align 8 dereferenceable(8) %9) #3
  call void @_ZN4cvc58internal6EnvObjD2Ev(ptr noundef nonnull align 8 dereferenceable(16) %7) #3
  br label %16

16:                                               ; preds = %12
  %17 = load ptr, ptr %5, align 8
  %18 = load i32, ptr %6, align 4
  %19 = insertvalue { ptr, i32 } poison, ptr %17, 0
  %20 = insertvalue { ptr, i32 } %19, i32 %18, 1
  resume { ptr, i32 } %20
}