; Function Attrs: mustprogress uwtable
define hidden void @_ZN4cvc58internal3smt19InterpolationSolverC2ERNS0_3EnvE(ptr noundef nonnull align 8 dereferenceable(32) %0, ptr noundef nonnull align 8 dereferenceable(696) %1) unnamed_addr #3 align 2 personality ptr @__gxx_personality_v0 {
  tail call void @_ZN4cvc58internal6EnvObjC2ERNS0_3EnvE(ptr noundef nonnull align 8 dereferenceable(16) %0, ptr noundef nonnull align 8 dereferenceable(696) %1)
  store ptr getelementptr inbounds nuw inrange(-16, 16) (i8, ptr @_ZTVN4cvc58internal3smt19InterpolationSolverE, i64 16), ptr %0, align 8, !tbaa !3
  %3 = getelementptr inbounds nuw i8, ptr %0, i64 16
  store ptr null, ptr %3, align 8, !tbaa !6
  %4 = load atomic i8, ptr @_ZGVZN4cvc58internal4expr9NodeValue4nullEvE6s_null acquire, align 8
  %5 = icmp eq i8 %4, 0
  br i1 %5, label %6, label %14, !prof !11

6:                                                ; preds = %2
  %7 = tail call i32 @__cxa_guard_acquire(ptr nonnull @_ZGVZN4cvc58internal4expr9NodeValue4nullEvE6s_null) #22
  %.not.i.i = icmp eq i32 %7, 0
  br i1 %.not.i.i, label %14, label %8

8:                                                ; preds = %6
  %9 = invoke noalias noundef nonnull dereferenceable(24) ptr @_Znwm(i64 noundef 24) #23
          to label %10 unwind label %.body

10:                                               ; preds = %8
  store i64 1152920405095219200, ptr %9, align 8
  %11 = getelementptr inbounds nuw i8, ptr %9, i64 8
  tail call void @llvm.memset.p0.i64(ptr noundef nonnull align 8 dereferenceable(16) %11, i8 0, i64 16, i1 false)
  store ptr %9, ptr @_ZZN4cvc58internal4expr9NodeValue4nullEvE6s_null, align 8, !tbaa !12
  tail call void @__cxa_guard_release(ptr nonnull @_ZGVZN4cvc58internal4expr9NodeValue4nullEvE6s_null) #22
  br label %14

.body:                                            ; preds = %8
  %12 = landingpad { ptr, i32 }
          cleanup
  tail call void @__cxa_guard_abort(ptr nonnull @_ZGVZN4cvc58internal4expr9NodeValue4nullEvE6s_null) #22
  %13 = load ptr, ptr %3, align 8, !tbaa !14
  %.not.i = icmp eq ptr %13, null
  br i1 %.not.i, label %_ZNSt10unique_ptrIN4cvc58internal6theory11quantifiers13SygusInterpolESt14default_deleteIS4_EED2Ev.exit, label %_ZNKSt14default_deleteIN4cvc58internal6theory11quantifiers13SygusInterpolEEclEPS4_.exit.i

14:                                               ; preds = %10, %6, %2
  %15 = getelementptr inbounds nuw i8, ptr %0, i64 24
  %16 = load ptr, ptr @_ZZN4cvc58internal4expr9NodeValue4nullEvE6s_null, align 8, !tbaa !12
  store ptr %16, ptr %15, align 8, !tbaa !15
  ret void

_ZNKSt14default_deleteIN4cvc58internal6theory11quantifiers13SygusInterpolEEclEPS4_.exit.i: ; preds = %.body
  %17 = load ptr, ptr %13, align 8, !tbaa !3
  %18 = getelementptr inbounds nuw i8, ptr %17, i64 8
  %19 = load ptr, ptr %18, align 8
  tail call void %19(ptr noundef nonnull align 8 dereferenceable(248) %13) #22
  br label %_ZNSt10unique_ptrIN4cvc58internal6theory11quantifiers13SygusInterpolESt14default_deleteIS4_EED2Ev.exit

_ZNSt10unique_ptrIN4cvc58internal6theory11quantifiers13SygusInterpolESt14default_deleteIS4_EED2Ev.exit: ; preds = %.body, %_ZNKSt14default_deleteIN4cvc58internal6theory11quantifiers13SygusInterpolEEclEPS4_.exit.i
  store ptr null, ptr %3, align 8, !tbaa !14
  resume { ptr, i32 } %12
}